target datalayout = "e-m:e-p270:32:32-p271:32:32-p272:64:64-i64:64-i128:128-f80:128-n8:16:32:64-S128"
target triple = "x86_64-pc-linux-gnu"

%"class.clang::SourceLocation" = type { i32 }
%"class.clang::Decl.base" = type <{ ptr, %"class.llvm::PointerIntPair.337", %"class.llvm::PointerUnion", %"class.clang::SourceLocation", i32, i8 }>
%"class.llvm::PointerIntPair.337" = type { %"struct.llvm::detail::PunnedPointer.338" }
%"struct.llvm::detail::PunnedPointer.338" = type { [8 x i8] }
%"class.llvm::PointerUnion" = type { %"class.llvm::pointer_union_detail::PointerUnionMembers" }
%"class.llvm::pointer_union_detail::PointerUnionMembers" = type { %"class.llvm::pointer_union_detail::PointerUnionMembers.339" }
%"class.llvm::pointer_union_detail::PointerUnionMembers.339" = type { %"class.llvm::pointer_union_detail::PointerUnionMembers.340" }
%"class.llvm::pointer_union_detail::PointerUnionMembers.340" = type { %"class.llvm::PointerIntPair.341" }
%"class.llvm::PointerIntPair.341" = type { %"struct.llvm::detail::PunnedPointer.342" }
%"struct.llvm::detail::PunnedPointer.342" = type { [8 x i8] }
%"class.clang::ObjCPropertyImplDecl" = type { %"class.clang::Decl.base", %"class.clang::SourceLocation", %"class.clang::SourceLocation", ptr, ptr, ptr, ptr, ptr, ptr }

; Function Attrs: mustprogress nounwind uwtable
define linkonce_odr hidden void @_ZN5clang20ObjCPropertyImplDeclC2EPNS_11DeclContextENS_14SourceLocationES3_PNS_16ObjCPropertyDeclENS0_4KindEPNS_12ObjCIvarDeclES3_(ptr noundef nonnull align 8 dereferenceable(96) %0, ptr noundef %1, i32 %2, i32 %3, ptr noundef %4, i32 noundef %5, ptr noundef %6, i32 %7) unnamed_addr #0 comdat align 2 {
  %9 = alloca %"class.clang::SourceLocation", align 4
  %10 = alloca %"class.clang::SourceLocation", align 4
  %11 = alloca %"class.clang::SourceLocation", align 4
  %12 = alloca ptr, align 8
  %13 = alloca ptr, align 8
  %14 = alloca ptr, align 8
  %15 = alloca i32, align 4
  %16 = alloca ptr, align 8
  %17 = alloca %"class.clang::SourceLocation", align 4
  %18 = getelementptr inbounds nuw %"class.clang::SourceLocation", ptr %9, i32 0, i32 0
  store i32 %2, ptr %18, align 4
  %19 = getelementptr inbounds nuw %"class.clang::SourceLocation", ptr %10, i32 0, i32 0
  store i32 %3, ptr %19, align 4
  %20 = getelementptr inbounds nuw %"class.clang::SourceLocation", ptr %11, i32 0, i32 0
  store i32 %7, ptr %20, align 4
  store ptr %0, ptr %12, align 8
  store ptr %1, ptr %13, align 8
  store ptr %4, ptr %14, align 8
  store i32 %5, ptr %15, align 4
  store ptr %6, ptr %16, align 8
  %21 = load ptr, ptr %12, align 8
  %22 = load ptr, ptr %13, align 8
  call void @llvm.memcpy.p0.p0.i64(ptr align 4 %17, ptr align 4 %10, i64 4, i1 false)
  %23 = getelementptr inbounds nuw %"class.clang::SourceLocation", ptr %17, i32 0, i32 0
  %24 = load i32, ptr %23, align 4
  call void @_ZN5clang4DeclC2ENS0_4KindEPNS_11DeclContextENS_14SourceLocationE(ptr noundef nonnull align 8 dereferenceable(33) %21, i32 noundef 11, ptr noundef %22, i32 %24)
  store ptr getelementptr inbounds inrange(-16, 80) ({ [12 x ptr] }, ptr @_ZTVN5clang20ObjCPropertyImplDeclE, i32 0, i32 0, i32 2), ptr %21, align 8
  %25 = getelementptr inbounds nuw %"class.clang::ObjCPropertyImplDecl", ptr %21, i32 0, i32 1
  call void @llvm.memcpy.p0.p0.i64(ptr align 4 %25, ptr align 4 %9, i64 4, i1 false)
  %26 = getelementptr inbounds nuw %"class.clang::ObjCPropertyImplDecl", ptr %21, i32 0, i32 2
  call void @llvm.memcpy.p0.p0.i64(ptr align 8 %26, ptr align 4 %11, i64 4, i1 false)
  %27 = getelementptr inbounds nuw %"class.clang::ObjCPropertyImplDecl", ptr %21, i32 0, i32 3
  %28 = load ptr, ptr %14, align 8
  store ptr %28, ptr %27, align 8
  %29 = getelementptr inbounds nuw %"class.clang::ObjCPropertyImplDecl", ptr %21, i32 0, i32 4
  %30 = load ptr, ptr %16, align 8
  store ptr %30, ptr %29, align 8
  %31 = getelementptr inbounds nuw %"class.clang::ObjCPropertyImplDecl", ptr %21, i32 0, i32 5
  store ptr null, ptr %31, align 8
  %32 = getelementptr inbounds nuw %"class.clang::ObjCPropertyImplDecl", ptr %21, i32 0, i32 6
  store ptr null, ptr %32, align 8
  %33 = getelementptr inbounds nuw %"class.clang::ObjCPropertyImplDecl", ptr %21, i32 0, i32 7
  store ptr null, ptr %33, align 8
  %34 = getelementptr inbounds nuw %"class.clang::ObjCPropertyImplDecl", ptr %21, i32 0, i32 8
  store ptr null, ptr %34, align 8
  ret void
}

; Function Attrs: mustprogress nounwind uwtable
define dso_local noundef ptr @_ZN5clang20ObjCPropertyImplDecl6CreateERNS_10ASTContextEPNS_11DeclContextENS_14SourceLocationES5_PNS_16ObjCPropertyDeclENS0_4KindEPNS_12ObjCIvarDeclES5_(ptr noundef nonnull align 8 dereferenceable(23096) %0, ptr noundef %1, i32 %2, i32 %3, ptr noundef %4, i32 noundef %5, ptr noundef %6, i32 %7) #0 align 2 {
  %9 = alloca %"class.clang::SourceLocation", align 4
  %10 = alloca %"class.clang::SourceLocation", align 4
  %11 = alloca %"class.clang::SourceLocation", align 4
  %12 = alloca ptr, align 8
  %13 = alloca ptr, align 8
  %14 = alloca ptr, align 8
  %15 = alloca i32, align 4
  %16 = alloca ptr, align 8
  %17 = alloca %"class.clang::SourceLocation", align 4
  %18 = alloca %"class.clang::SourceLocation", align 4
  %19 = alloca %"class.clang::SourceLocation", align 4
  %20 = getelementptr inbounds nuw %"class.clang::SourceLocation", ptr %9, i32 0, i32 0
  store i32 %2, ptr %20, align 4
  %21 = getelementptr inbounds nuw %"class.clang::SourceLocation", ptr %10, i32 0, i32 0
  store i32 %3, ptr %21, align 4
  %22 = getelementptr inbounds nuw %"class.clang::SourceLocation", ptr %11, i32 0, i32 0
  store i32 %7, ptr %22, align 4
  store ptr %0, ptr %12, align 8
  store ptr %1, ptr %13, align 8
  store ptr %4, ptr %14, align 8
  store i32 %5, ptr %15, align 4
  store ptr %6, ptr %16, align 8
  %23 = load ptr, ptr %12, align 8
  %24 = load ptr, ptr %13, align 8
  %25 = call noundef ptr @_ZN5clang4DeclnwEmRKNS_10ASTContextEPNS_11DeclContextEm(i64 noundef 96, ptr noundef nonnull align 8 dereferenceable(23096) %23, ptr noundef %24, i64 noundef 0)
  %26 = load ptr, ptr %13, align 8
  call void @llvm.memcpy.p0.p0.i64(ptr align 4 %17, ptr align 4 %9, i64 4, i1 false)
  call void @llvm.memcpy.p0.p0.i64(ptr align 4 %18, ptr align 4 %10, i64 4, i1 false)
  %27 = load ptr, ptr %14, align 8
  %28 = load i32, ptr %15, align 4
  %29 = load ptr, ptr %16, align 8
  call void @llvm.memcpy.p0.p0.i64(ptr align 4 %19, ptr align 4 %11, i64 4, i1 false)
  %30 = getelementptr inbounds nuw %"class.clang::SourceLocation", ptr %17, i32 0, i32 0
  %31 = load i32, ptr %30, align 4
  %32 = getelementptr inbounds nuw %"class.clang::SourceLocation", ptr %18, i32 0, i32 0
  %33 = load i32, ptr %32, align 4
  %34 = getelementptr inbounds nuw %"class.clang::SourceLocation", ptr %19, i32 0, i32 0
  %35 = load i32, ptr %34, align 4
  call void @_ZN5clang20ObjCPropertyImplDeclC2EPNS_11DeclContextENS_14SourceLocationES3_PNS_16ObjCPropertyDeclENS0_4KindEPNS_12ObjCIvarDeclES3_(ptr noundef nonnull align 8 dereferenceable(96) %25, ptr noundef %26, i32 %31, i32 %33, ptr noundef %27, i32 noundef %28, ptr noundef %29, i32 %35)
  ret ptr %25
}