; Function Attrs: mustprogress nounwind uwtable
define dso_local noundef ptr @_ZN5clang20ObjCPropertyImplDecl6CreateERNS_10ASTContextEPNS_11DeclContextENS_14SourceLocationES5_PNS_16ObjCPropertyDeclENS0_4KindEPNS_12ObjCIvarDeclES5_(ptr noundef nonnull align 8 dereferenceable(23096) %0, ptr noundef %1, i32 %2, i32 %3, ptr noundef %4, i32 noundef %5, ptr noundef %6, i32 %7) local_unnamed_addr #0 align 2 {
  %9 = tail call noundef ptr @_ZN5clang4DeclnwEmRKNS_10ASTContextEPNS_11DeclContextEm(i64 noundef 96, ptr noundef nonnull align 8 dereferenceable(23096) %0, ptr noundef %1, i64 noundef 0) #23
  tail call void @_ZN5clang4DeclC2ENS0_4KindEPNS_11DeclContextENS_14SourceLocationE(ptr noundef nonnull align 8 dereferenceable(33) %9, i32 noundef 11, ptr noundef %1, i32 %3)
  store ptr getelementptr inbounds inrange(-16, 80) (i8, ptr @_ZTVN5clang20ObjCPropertyImplDeclE, i64 16), ptr %9, align 8
  %10 = getelementptr inbounds nuw i8, ptr %9, i64 36
  store i32 %2, ptr %10, align 4
  %11 = getelementptr inbounds nuw i8, ptr %9, i64 40
  store i32 %7, ptr %11, align 8
  %12 = getelementptr inbounds nuw i8, ptr %9, i64 48
  store ptr %4, ptr %12, align 8
  %13 = getelementptr inbounds nuw i8, ptr %9, i64 56
  store ptr %6, ptr %13, align 8
  %14 = getelementptr inbounds nuw i8, ptr %9, i64 64
  tail call void @llvm.memset.p0.i64(ptr noundef nonnull align 8 dereferenceable(32) %14, i8 0, i64 32, i1 false)
  ret ptr %9
}